; Function Attrs: nounwind uwtable
define internal void @cvBandFree(ptr noundef captures(none) %0) #0 {
  %2 = getelementptr inbounds nuw i8, ptr %0, i64 1696
  %3 = load ptr, ptr %2, align 8, !tbaa !40
  %4 = getelementptr inbounds nuw i8, ptr %3, i64 72
  %5 = load ptr, ptr %4, align 8, !tbaa !37
  tail call void @DestroyMat(ptr noundef %5) #7
  %6 = getelementptr inbounds nuw i8, ptr %3, i64 80
  %7 = load ptr, ptr %6, align 8, !tbaa !38
  tail call void @DestroyMat(ptr noundef %7) #7
  %8 = getelementptr inbounds nuw i8, ptr %3, i64 96
  %9 = load ptr, ptr %8, align 8, !tbaa !39
  tail call void @DestroyArray(ptr noundef %9) #7
  tail call void @free(ptr noundef %3) #7
  store ptr null, ptr %2, align 8, !tbaa !40
  ret void
}